; Function Attrs: nounwind uwtable
define internal fastcc ptr @typeof_specifier(ptr nocapture noundef writeonly %rest, ptr noundef %tok) unnamed_addr #0 {
entry:
  %tok.addr.i = alloca ptr, align 8
  %tok.addr = alloca ptr, align 8
  %call = tail call ptr @skip(ptr noundef %tok, ptr noundef nonnull @.str.23) #13
  store ptr %call, ptr %tok.addr, align 8
  %0 = load i32, ptr getelementptr inbounds (%struct.HashMap, ptr @is_typename.map, i64 0, i32 1), align 8
  %cmp.i = icmp eq i32 %0, 0
  br i1 %cmp.i, label %for.body.i, label %if.end.i

for.body.i:                                       ; preds = %entry, %for.body.i
  %indvars.iv.i = phi i64 [ %indvars.iv.next.i, %for.body.i ], [ 0, %entry ]
  %arrayidx.i = getelementptr inbounds [30 x ptr], ptr @is_typename.kw, i64 0, i64 %indvars.iv.i
  %1 = load ptr, ptr %arrayidx.i, align 8
  tail call void @hashmap_put(ptr noundef nonnull @is_typename.map, ptr noundef %1, ptr noundef nonnull inttoptr (i64 1 to ptr)) #13
  %indvars.iv.next.i = add nuw nsw i64 %indvars.iv.i, 1
  %exitcond.not.i = icmp eq i64 %indvars.iv.next.i, 30
  br i1 %exitcond.not.i, label %if.end.i, label %for.body.i, !llvm.loop !13

if.end.i:                                         ; preds = %for.body.i, %entry
  %loc.i = getelementptr inbounds %struct.Token, ptr %call, i64 0, i32 4
  %2 = load ptr, ptr %loc.i, align 16
  %len.i = getelementptr inbounds %struct.Token, ptr %call, i64 0, i32 5
  %3 = load i32, ptr %len.i, align 8
  %call.i = tail call ptr @hashmap_get2(ptr noundef nonnull @is_typename.map, ptr noundef %2, i32 noundef %3) #13
  %tobool.not.i = icmp eq ptr %call.i, null
  br i1 %tobool.not.i, label %lor.rhs.i, label %if.then

lor.rhs.i:                                        ; preds = %if.end.i
  %4 = load i32, ptr %call, align 16
  %cmp.i.i = icmp eq i32 %4, 0
  br i1 %cmp.i.i, label %for.cond.i.i.i, label %if.else

for.cond.i.i.i:                                   ; preds = %lor.rhs.i, %for.body.i.i.i
  %sc.0.in.i.i.i = phi ptr [ %sc.0.i.i.i, %for.body.i.i.i ], [ @scope, %lor.rhs.i ]
  %sc.0.i.i.i = load ptr, ptr %sc.0.in.i.i.i, align 8
  %tobool.not.i.i.i = icmp eq ptr %sc.0.i.i.i, null
  br i1 %tobool.not.i.i.i, label %if.else, label %for.body.i.i.i

for.body.i.i.i:                                   ; preds = %for.cond.i.i.i
  %vars.i.i.i = getelementptr inbounds %struct.Scope, ptr %sc.0.i.i.i, i64 0, i32 1
  %5 = load ptr, ptr %loc.i, align 16
  %6 = load i32, ptr %len.i, align 8
  %call.i.i.i = tail call ptr @hashmap_get2(ptr noundef nonnull %vars.i.i.i, ptr noundef %5, i32 noundef %6) #13
  %tobool1.not.i.i.i = icmp eq ptr %call.i.i.i, null
  br i1 %tobool1.not.i.i.i, label %for.cond.i.i.i, label %is_typename.exit, !llvm.loop !14

is_typename.exit:                                 ; preds = %for.body.i.i.i
  %type_def.i.i = getelementptr inbounds %struct.VarScope, ptr %call.i.i.i, i64 0, i32 1
  %7 = load ptr, ptr %type_def.i.i, align 8
  %.not = icmp eq ptr %7, null
  br i1 %.not, label %if.else, label %if.then

if.then:                                          ; preds = %if.end.i, %is_typename.exit
  call void @llvm.lifetime.start.p0(i64 8, ptr nonnull %tok.addr.i)
  store ptr %call, ptr %tok.addr.i, align 8
  %call.i2 = call fastcc ptr @declspec(ptr noundef nonnull %tok.addr.i, ptr noundef nonnull %call, ptr noundef null)
  %8 = load ptr, ptr %tok.addr.i, align 8
  %call1.i = call fastcc ptr @abstract_declarator(ptr noundef nonnull %tok.addr, ptr noundef %8, ptr noundef %call.i2)
  call void @llvm.lifetime.end.p0(i64 8, ptr nonnull %tok.addr.i)
  br label %if.end

if.else:                                          ; preds = %for.cond.i.i.i, %lor.rhs.i, %is_typename.exit
  %call3 = call fastcc ptr @expr(ptr noundef nonnull %tok.addr, ptr noundef nonnull %call)
  tail call void @add_type(ptr noundef %call3) #13
  %ty4 = getelementptr inbounds %struct.Node, ptr %call3, i64 0, i32 2
  %9 = load ptr, ptr %ty4, align 16
  br label %if.end

if.end:                                           ; preds = %if.else, %if.then
  %ty.0 = phi ptr [ %call1.i, %if.then ], [ %9, %if.else ]
  %10 = load ptr, ptr %tok.addr, align 8
  %call5 = call ptr @skip(ptr noundef %10, ptr noundef nonnull @.str.24) #13
  store ptr %call5, ptr %rest, align 8
  ret ptr %ty.0
}